; Function Attrs: mustprogress uwtable
define noundef ptr @_ZN6Assimp14StandardShapes8MakeMeshEPFjRSt6vectorI10aiVector3tIfESaIS3_EEE(ptr noundef readonly captures(none) %0) local_unnamed_addr #3 align 2 personality ptr @__gxx_personality_v0 {
  %2 = alloca %"class.std::vector", align 8
  call void @llvm.lifetime.start.p0(i64 24, ptr nonnull %2) #15
  call void @llvm.memset.p0.i64(ptr noundef nonnull align 8 dereferenceable(24) %2, i8 0, i64 24, i1 false)
  %3 = invoke noundef i32 %0(ptr noundef nonnull align 8 dereferenceable(24) %2)
          to label %4 unwind label %14

4:                                                ; preds = %1
  %5 = invoke noundef ptr @_ZN6Assimp14StandardShapes8MakeMeshERKSt6vectorI10aiVector3tIfESaIS3_EEj(ptr noundef nonnull align 8 dereferenceable(24) %2, i32 noundef %3)
          to label %6 unwind label %14

6:                                                ; preds = %4
  %7 = load ptr, ptr %2, align 8
  %.not.i.i.i = icmp eq ptr %7, null
  br i1 %.not.i.i.i, label %_ZNSt6vectorI10aiVector3tIfESaIS1_EED2Ev.exit, label %8

8:                                                ; preds = %6
  %9 = getelementptr inbounds nuw i8, ptr %2, i64 16
  %10 = load ptr, ptr %9, align 8
  %11 = ptrtoint ptr %10 to i64
  %12 = ptrtoint ptr %7 to i64
  %13 = sub i64 %11, %12
  call void @_ZdlPvm(ptr noundef nonnull %7, i64 noundef %13) #14
  br label %_ZNSt6vectorI10aiVector3tIfESaIS1_EED2Ev.exit

_ZNSt6vectorI10aiVector3tIfESaIS1_EED2Ev.exit:    ; preds = %6, %8
  call void @llvm.lifetime.end.p0(i64 24, ptr nonnull %2) #15
  ret ptr %5

14:                                               ; preds = %4, %1
  %15 = landingpad { ptr, i32 }
          cleanup
  %16 = load ptr, ptr %2, align 8
  %.not.i.i.i3 = icmp eq ptr %16, null
  br i1 %.not.i.i.i3, label %_ZNSt6vectorI10aiVector3tIfESaIS1_EED2Ev.exit4, label %17

17:                                               ; preds = %14
  %18 = getelementptr inbounds nuw i8, ptr %2, i64 16
  %19 = load ptr, ptr %18, align 8
  %20 = ptrtoint ptr %19 to i64
  %21 = ptrtoint ptr %16 to i64
  %22 = sub i64 %20, %21
  call void @_ZdlPvm(ptr noundef nonnull %16, i64 noundef %22) #14
  br label %_ZNSt6vectorI10aiVector3tIfESaIS1_EED2Ev.exit4

_ZNSt6vectorI10aiVector3tIfESaIS1_EED2Ev.exit4:   ; preds = %14, %17
  call void @llvm.lifetime.end.p0(i64 24, ptr nonnull %2) #15
  resume { ptr, i32 } %15
}